; Function Attrs: mustprogress nounwind uwtable
define internal fastcc void @_ZL22post_thread_park_eventP15EventThreadParkP7oopDescll(ptr noundef %0, ptr noundef %1, i64 noundef %2, i64 noundef %3) unnamed_addr #1 {
  %.not = icmp eq ptr %1, null
  br i1 %.not, label %.critedge, label %5

5:                                                ; preds = %4
  %6 = load i8, ptr @UseCompressedClassPointers, align 1
  %7 = trunc i8 %6 to i1
  %8 = getelementptr inbounds i8, ptr %1, i64 8
  br i1 %7, label %9, label %19

9:                                                ; preds = %5
  %10 = load i32, ptr %8, align 8
  %11 = load ptr, ptr @_ZN23CompressedKlassPointers5_baseE, align 8
  %12 = load i32, ptr @_ZN23CompressedKlassPointers6_shiftE, align 4
  %13 = ptrtoint ptr %11 to i64
  %14 = zext i32 %10 to i64
  %15 = zext nneg i32 %12 to i64
  %16 = shl i64 %14, %15
  %17 = add i64 %16, %13
  %18 = inttoptr i64 %17 to ptr
  br label %_ZNK7oopDesc5klassEv.exit

19:                                               ; preds = %5
  %20 = load ptr, ptr %8, align 8
  br label %_ZNK7oopDesc5klassEv.exit

_ZNK7oopDesc5klassEv.exit:                        ; preds = %9, %19
  %.0.i = phi ptr [ %18, %9 ], [ %20, %19 ]
  %21 = getelementptr inbounds i8, ptr %0, i64 24
  store ptr %.0.i, ptr %21, align 8
  %22 = getelementptr inbounds i8, ptr %0, i64 32
  store i64 %2, ptr %22, align 8
  %23 = getelementptr inbounds i8, ptr %0, i64 40
  store i64 %3, ptr %23, align 8
  %24 = ptrtoint ptr %1 to i64
  br label %28

.critedge:                                        ; preds = %4
  %25 = getelementptr inbounds i8, ptr %0, i64 24
  store ptr null, ptr %25, align 8
  %26 = getelementptr inbounds i8, ptr %0, i64 32
  store i64 %2, ptr %26, align 8
  %27 = getelementptr inbounds i8, ptr %0, i64 40
  store i64 %3, ptr %27, align 8
  br label %28

28:                                               ; preds = %.critedge, %_ZNK7oopDesc5klassEv.exit
  %29 = phi i64 [ %24, %_ZNK7oopDesc5klassEv.exit ], [ 0, %.critedge ]
  %30 = getelementptr inbounds i8, ptr %0, i64 48
  store i64 %29, ptr %30, align 8
  %31 = getelementptr inbounds i8, ptr %0, i64 18
  %32 = load i8, ptr %31, align 2
  %33 = trunc i8 %32 to i1
  br i1 %33, label %34, label %38

34:                                               ; preds = %28
  %35 = getelementptr inbounds i8, ptr %0, i64 17
  %36 = load i8, ptr %35, align 1
  %37 = trunc i8 %36 to i1
  br i1 %37, label %58, label %_ZN8JfrEventI15EventThreadParkE6commitEv.exit

38:                                               ; preds = %28
  %39 = load i8, ptr getelementptr inbounds (i8, ptr @_ZN15JfrEventSetting19_jvm_event_settingsE, i64 257), align 1
  %.not.i.i = icmp eq i8 %39, 0
  br i1 %.not.i.i, label %_ZN8JfrEventI15EventThreadParkE6commitEv.exit, label %40

40:                                               ; preds = %38
  %41 = load i64, ptr %0, align 8
  %42 = icmp eq i64 %41, 0
  br i1 %42, label %43, label %45

43:                                               ; preds = %40
  %44 = tail call noundef i64 @_ZN33FastUnorderedElapsedCounterSource3nowEv() #12
  store i64 %44, ptr %0, align 8
  %.phi.trans.insert.i.i.i = getelementptr inbounds i8, ptr %0, i64 8
  %.pre.i.i.i = load i64, ptr %.phi.trans.insert.i.i.i, align 8
  br label %_ZN8JfrEventI15EventThreadParkE8evaluateEv.exit.i.i

45:                                               ; preds = %40
  %46 = getelementptr inbounds i8, ptr %0, i64 8
  %47 = load i64, ptr %46, align 8
  %48 = icmp eq i64 %47, 0
  br i1 %48, label %49, label %_ZN8JfrEventI15EventThreadParkE8evaluateEv.exit.i.i

49:                                               ; preds = %45
  %50 = tail call noundef i64 @_ZN33FastUnorderedElapsedCounterSource3nowEv() #12
  store i64 %50, ptr %46, align 8
  %.pre3.i.i.i = load i64, ptr %0, align 8
  br label %_ZN8JfrEventI15EventThreadParkE8evaluateEv.exit.i.i

_ZN8JfrEventI15EventThreadParkE8evaluateEv.exit.i.i: ; preds = %49, %45, %43
  %51 = phi i64 [ %41, %45 ], [ %.pre3.i.i.i, %49 ], [ %44, %43 ]
  %52 = phi i64 [ %47, %45 ], [ %50, %49 ], [ %.pre.i.i.i, %43 ]
  %53 = sub nsw i64 %52, %51
  %54 = load i64, ptr getelementptr inbounds (i8, ptr @_ZN15JfrEventSetting19_jvm_event_settingsE, i64 240), align 8
  %.not2.i.i = icmp slt i64 %53, %54
  br i1 %.not2.i.i, label %_ZN8JfrEventI15EventThreadParkE6commitEv.exit, label %_ZN8JfrEventI15EventThreadParkE12should_writeEv.exit.i

_ZN8JfrEventI15EventThreadParkE12should_writeEv.exit.i: ; preds = %_ZN8JfrEventI15EventThreadParkE8evaluateEv.exit.i.i
  %55 = tail call align 8 ptr @llvm.threadlocal.address.p0(ptr align 8 @_ZN6Thread12_thr_currentE)
  %56 = load ptr, ptr %55, align 8
  %57 = tail call noundef zeroext i1 @_ZN14JfrThreadLocal11is_includedEPK6Thread(ptr noundef %56) #12
  br i1 %57, label %58, label %_ZN8JfrEventI15EventThreadParkE6commitEv.exit

58:                                               ; preds = %_ZN8JfrEventI15EventThreadParkE12should_writeEv.exit.i, %34
  tail call void @_ZN8JfrEventI15EventThreadParkE11write_eventEv(ptr noundef nonnull align 8 dereferenceable(19) %0)
  br label %_ZN8JfrEventI15EventThreadParkE6commitEv.exit

_ZN8JfrEventI15EventThreadParkE6commitEv.exit:    ; preds = %34, %38, %_ZN8JfrEventI15EventThreadParkE8evaluateEv.exit.i.i, %_ZN8JfrEventI15EventThreadParkE12should_writeEv.exit.i, %58
  ret void
}